target datalayout = "e-m:e-p270:32:32-p271:32:32-p272:64:64-i64:64-i128:128-f80:128-n8:16:32:64-S128"
target triple = "x86_64-pc-linux-gnu"

%"class.LightGBM::MultiValBinWrapper" = type { i8, i8, i8, %"class.std::unique_ptr", %"class.std::unique_ptr", %"class.std::vector", %"class.std::vector", %"class.std::vector", %"class.std::vector.2", i32, i32, i32, i32, i32, i32, i32, i32, ptr, i64, i64, i64, i64 }
%"class.std::unique_ptr" = type { %"struct.std::__uniq_ptr_data" }
%"struct.std::__uniq_ptr_data" = type { %"class.std::__uniq_ptr_impl" }
%"class.std::__uniq_ptr_impl" = type { %"class.std::tuple" }
%"class.std::tuple" = type { %"struct.std::_Tuple_impl" }
%"struct.std::_Tuple_impl" = type { %"struct.std::_Head_base.1" }
%"struct.std::_Head_base.1" = type { ptr }
%"class.std::vector" = type { %"struct.std::_Vector_base" }
%"struct.std::_Vector_base" = type { %"struct.std::_Vector_base<unsigned int, std::allocator<unsigned int>>::_Vector_impl" }
%"struct.std::_Vector_base<unsigned int, std::allocator<unsigned int>>::_Vector_impl" = type { %"struct.std::_Vector_base<unsigned int, std::allocator<unsigned int>>::_Vector_impl_data" }
%"struct.std::_Vector_base<unsigned int, std::allocator<unsigned int>>::_Vector_impl_data" = type { ptr, ptr, ptr }
%"class.std::vector.2" = type { %"struct.std::_Vector_base.3" }
%"struct.std::_Vector_base.3" = type { %"struct.std::_Vector_base<int, std::allocator<int>>::_Vector_impl" }
%"struct.std::_Vector_base<int, std::allocator<int>>::_Vector_impl" = type { %"struct.std::_Vector_base<int, std::allocator<int>>::_Vector_impl_data" }
%"struct.std::_Vector_base<int, std::allocator<int>>::_Vector_impl_data" = type { ptr, ptr, ptr }

; Function Attrs: mustprogress nounwind uwtable
define linkonce_odr noundef nonnull align 8 dereferenceable(8) ptr @_ZNSt10_Head_baseILm0EPN8LightGBM11MultiValBinELb0EE7_M_headERKS3_(ptr noundef nonnull align 8 dereferenceable(8) %0) #4 comdat align 2 {
  %2 = alloca ptr, align 8
  store ptr %0, ptr %2, align 8, !tbaa !136
  %3 = load ptr, ptr %2, align 8, !tbaa !136
  %4 = getelementptr inbounds nuw %"struct.std::_Head_base.1", ptr %3, i32 0, i32 0
  ret ptr %4
}

; Function Attrs: mustprogress nounwind uwtable
define linkonce_odr noundef nonnull align 8 dereferenceable(8) ptr @_ZNSt11_Tuple_implILm0EJPN8LightGBM11MultiValBinESt14default_deleteIS1_EEE7_M_headERKS5_(ptr noundef nonnull align 8 dereferenceable(8) %0) #4 comdat align 2 {
  %2 = alloca ptr, align 8
  store ptr %0, ptr %2, align 8, !tbaa !132
  %3 = load ptr, ptr %2, align 8, !tbaa !132
  %4 = call noundef nonnull align 8 dereferenceable(8) ptr @_ZNSt10_Head_baseILm0EPN8LightGBM11MultiValBinELb0EE7_M_headERKS3_(ptr noundef nonnull align 8 dereferenceable(8) %3) #3
  ret ptr %4
}

; Function Attrs: mustprogress nounwind uwtable
define linkonce_odr noundef nonnull align 8 dereferenceable(8) ptr @_ZSt12__get_helperILm0EPN8LightGBM11MultiValBinEJSt14default_deleteIS1_EEERKT0_RKSt11_Tuple_implIXT_EJS5_DpT1_EE(ptr noundef nonnull align 8 dereferenceable(8) %0) #4 comdat {
  %2 = alloca ptr, align 8
  store ptr %0, ptr %2, align 8, !tbaa !132
  %3 = load ptr, ptr %2, align 8, !tbaa !132
  %4 = call noundef nonnull align 8 dereferenceable(8) ptr @_ZNSt11_Tuple_implILm0EJPN8LightGBM11MultiValBinESt14default_deleteIS1_EEE7_M_headERKS5_(ptr noundef nonnull align 8 dereferenceable(8) %3) #3
  ret ptr %4
}

; Function Attrs: mustprogress nounwind uwtable
define linkonce_odr noundef nonnull align 8 dereferenceable(8) ptr @_ZSt3getILm0EJPN8LightGBM11MultiValBinESt14default_deleteIS1_EEERKNSt13tuple_elementIXT_ESt5tupleIJDpT0_EEE4typeERKS9_(ptr noundef nonnull align 8 dereferenceable(8) %0) #4 comdat {
  %2 = alloca ptr, align 8
  store ptr %0, ptr %2, align 8, !tbaa !130
  %3 = load ptr, ptr %2, align 8, !tbaa !130
  %4 = call noundef nonnull align 8 dereferenceable(8) ptr @_ZSt12__get_helperILm0EPN8LightGBM11MultiValBinEJSt14default_deleteIS1_EEERKT0_RKSt11_Tuple_implIXT_EJS5_DpT1_EE(ptr noundef nonnull align 8 dereferenceable(8) %3) #3
  ret ptr %4
}

; Function Attrs: mustprogress nounwind uwtable
define linkonce_odr noundef ptr @_ZNKSt15__uniq_ptr_implIN8LightGBM11MultiValBinESt14default_deleteIS1_EE6_M_ptrEv(ptr noundef nonnull align 8 dereferenceable(8) %0) #4 comdat align 2 {
  %2 = alloca ptr, align 8
  store ptr %0, ptr %2, align 8, !tbaa !128
  %3 = load ptr, ptr %2, align 8
  %4 = getelementptr inbounds nuw %"class.std::__uniq_ptr_impl", ptr %3, i32 0, i32 0
  %5 = call noundef nonnull align 8 dereferenceable(8) ptr @_ZSt3getILm0EJPN8LightGBM11MultiValBinESt14default_deleteIS1_EEERKNSt13tuple_elementIXT_ESt5tupleIJDpT0_EEE4typeERKS9_(ptr noundef nonnull align 8 dereferenceable(8) %4) #3
  %6 = load ptr, ptr %5, align 8, !tbaa !108
  ret ptr %6
}

; Function Attrs: mustprogress nounwind uwtable
define linkonce_odr noundef zeroext i1 @_ZNKSt10unique_ptrIN8LightGBM11MultiValBinESt14default_deleteIS1_EEcvbEv(ptr noundef nonnull align 8 dereferenceable(8) %0) #4 comdat align 2 {
  %2 = alloca ptr, align 8
  store ptr %0, ptr %2, align 8, !tbaa !120
  %3 = load ptr, ptr %2, align 8
  %4 = call noundef ptr @_ZNKSt10unique_ptrIN8LightGBM11MultiValBinESt14default_deleteIS1_EE3getEv(ptr noundef nonnull align 8 dereferenceable(8) %3) #3
  %5 = icmp eq ptr %4, null
  %6 = select i1 %5, i1 false, i1 true
  ret i1 %6
}

; Function Attrs: inlinehint mustprogress nounwind uwtable
define linkonce_odr noundef nonnull align 4 dereferenceable(4) ptr @_ZSt3maxIiERKT_S2_S2_(ptr noundef nonnull align 4 dereferenceable(4) %0, ptr noundef nonnull align 4 dereferenceable(4) %1) #9 comdat {
  %3 = alloca ptr, align 8
  %4 = alloca ptr, align 8
  %5 = alloca ptr, align 8
  store ptr %0, ptr %4, align 8, !tbaa !41
  store ptr %1, ptr %5, align 8, !tbaa !41
  %6 = load ptr, ptr %4, align 8, !tbaa !41
  %7 = load i32, ptr %6, align 4, !tbaa !45
  %8 = load ptr, ptr %5, align 8, !tbaa !41
  %9 = load i32, ptr %8, align 4, !tbaa !45
  %10 = icmp slt i32 %7, %9
  br i1 %10, label %11, label %13

11:                                               ; preds = %2
  %12 = load ptr, ptr %5, align 8, !tbaa !41
  store ptr %12, ptr %3, align 8
  br label %15

13:                                               ; preds = %2
  %14 = load ptr, ptr %4, align 8, !tbaa !41
  store ptr %14, ptr %3, align 8
  br label %15

15:                                               ; preds = %13, %11
  %16 = load ptr, ptr %3, align 8
  ret ptr %16
}

; Function Attrs: inlinehint mustprogress nounwind uwtable
define linkonce_odr noundef nonnull align 4 dereferenceable(4) ptr @_ZSt3minIiERKT_S2_S2_(ptr noundef nonnull align 4 dereferenceable(4) %0, ptr noundef nonnull align 4 dereferenceable(4) %1) #9 comdat {
  %3 = alloca ptr, align 8
  %4 = alloca ptr, align 8
  %5 = alloca ptr, align 8
  store ptr %0, ptr %4, align 8, !tbaa !41
  store ptr %1, ptr %5, align 8, !tbaa !41
  %6 = load ptr, ptr %5, align 8, !tbaa !41
  %7 = load i32, ptr %6, align 4, !tbaa !45
  %8 = load ptr, ptr %4, align 8, !tbaa !41
  %9 = load i32, ptr %8, align 4, !tbaa !45
  %10 = icmp slt i32 %7, %9
  br i1 %10, label %11, label %13

11:                                               ; preds = %2
  %12 = load ptr, ptr %5, align 8, !tbaa !41
  store ptr %12, ptr %3, align 8
  br label %15

13:                                               ; preds = %2
  %14 = load ptr, ptr %4, align 8, !tbaa !41
  store ptr %14, ptr %3, align 8
  br label %15

15:                                               ; preds = %13, %11
  %16 = load ptr, ptr %3, align 8
  ret ptr %16
}

; Function Attrs: mustprogress nounwind uwtable
define linkonce_odr noundef ptr @_ZNKSt10unique_ptrIN8LightGBM11MultiValBinESt14default_deleteIS1_EE3getEv(ptr noundef nonnull align 8 dereferenceable(8) %0) #4 comdat align 2 {
  %2 = alloca ptr, align 8
  store ptr %0, ptr %2, align 8, !tbaa !120
  %3 = load ptr, ptr %2, align 8
  %4 = getelementptr inbounds nuw %"class.std::unique_ptr", ptr %3, i32 0, i32 0
  %5 = call noundef ptr @_ZNKSt15__uniq_ptr_implIN8LightGBM11MultiValBinESt14default_deleteIS1_EE6_M_ptrEv(ptr noundef nonnull align 8 dereferenceable(8) %4) #3
  ret ptr %5
}

; Function Attrs: inlinehint mustprogress nounwind uwtable
define linkonce_odr noundef zeroext i1 @_ZSteqIN8LightGBM11MultiValBinESt14default_deleteIS1_EEbRKSt10unique_ptrIT_T0_EDn(ptr noundef nonnull align 8 dereferenceable(8) %0, ptr %1) #9 comdat {
  %3 = alloca ptr, align 8
  %4 = alloca ptr, align 8
  store ptr %0, ptr %3, align 8, !tbaa !120
  store ptr %1, ptr %4, align 8, !tbaa !177
  %5 = load ptr, ptr %3, align 8, !tbaa !120
  %6 = call noundef zeroext i1 @_ZNKSt10unique_ptrIN8LightGBM11MultiValBinESt14default_deleteIS1_EEcvbEv(ptr noundef nonnull align 8 dereferenceable(8) %5) #3
  %7 = xor i1 %6, true
  ret i1 %7
}

; Function Attrs: mustprogress uwtable
define void @_ZN8LightGBM18MultiValBinWrapper9InitTrainERKSt6vectorIiSaIiEERKS1_ISt10unique_ptrINS_12FeatureGroupESt14default_deleteIS7_EESaISA_EERKS1_IaSaIaEEPKii(ptr noundef nonnull align 8 dereferenceable(192) %0, ptr noundef nonnull align 8 dereferenceable(24) %1, ptr noundef nonnull align 8 dereferenceable(24) %2, ptr noundef nonnull align 8 dereferenceable(24) %3, ptr noundef %4, i32 noundef %5) #11 align 2 {
  %7 = alloca ptr, align 8
  %8 = alloca ptr, align 8
  %9 = alloca ptr, align 8
  %10 = alloca ptr, align 8
  %11 = alloca ptr, align 8
  %12 = alloca i32, align 4
  %13 = alloca ptr, align 8
  %14 = alloca double, align 8
  %15 = alloca i32, align 4
  %16 = alloca i32, align 4
  %17 = alloca i32, align 4
  store ptr %0, ptr %7, align 8, !tbaa !4
  store ptr %1, ptr %8, align 8, !tbaa !109
  store ptr %2, ptr %9, align 8, !tbaa !172
  store ptr %3, ptr %10, align 8, !tbaa !174
  store ptr %4, ptr %11, align 8, !tbaa !41
  store i32 %5, ptr %12, align 4, !tbaa !45
  %18 = load ptr, ptr %7, align 8
  %19 = getelementptr inbounds nuw %"class.LightGBM::MultiValBinWrapper", ptr %18, i32 0, i32 0
  store i8 0, ptr %19, align 8, !tbaa !11
  %20 = getelementptr inbounds nuw %"class.LightGBM::MultiValBinWrapper", ptr %18, i32 0, i32 3
  %21 = call noundef zeroext i1 @_ZSteqIN8LightGBM11MultiValBinESt14default_deleteIS1_EEbRKSt10unique_ptrIT_T0_EDn(ptr noundef nonnull align 8 dereferenceable(8) %20, ptr null) #3
  br i1 %21, label %22, label %23

22:                                               ; preds = %6
  br label %83

23:                                               ; preds = %6
  %24 = load ptr, ptr %8, align 8, !tbaa !109
  %25 = load ptr, ptr %9, align 8, !tbaa !172
  %26 = load ptr, ptr %10, align 8, !tbaa !174
  %27 = load ptr, ptr %11, align 8, !tbaa !41
  %28 = load i32, ptr %12, align 4, !tbaa !45
  call void @_ZN8LightGBM18MultiValBinWrapper21CopyMultiValBinSubsetERKSt6vectorIiSaIiEERKS1_ISt10unique_ptrINS_12FeatureGroupESt14default_deleteIS7_EESaISA_EERKS1_IaSaIaEEPKii(ptr noundef nonnull align 8 dereferenceable(192) %18, ptr noundef nonnull align 8 dereferenceable(24) %24, ptr noundef nonnull align 8 dereferenceable(24) %25, ptr noundef nonnull align 8 dereferenceable(24) %26, ptr noundef %27, i32 noundef %28)
  call void @llvm.lifetime.start.p0(i64 8, ptr %13) #3
  %29 = getelementptr inbounds nuw %"class.LightGBM::MultiValBinWrapper", ptr %18, i32 0, i32 0
  %30 = load i8, ptr %29, align 8, !tbaa !11, !range !33, !noundef !34
  %31 = trunc i8 %30 to i1
  br i1 %31, label %36, label %32

32:                                               ; preds = %23
  %33 = getelementptr inbounds nuw %"class.LightGBM::MultiValBinWrapper", ptr %18, i32 0, i32 1
  %34 = load i8, ptr %33, align 1, !tbaa !111, !range !33, !noundef !34
  %35 = trunc i8 %34 to i1
  br i1 %35, label %36, label %39

36:                                               ; preds = %32, %23
  %37 = getelementptr inbounds nuw %"class.LightGBM::MultiValBinWrapper", ptr %18, i32 0, i32 4
  %38 = call noundef ptr @_ZNKSt10unique_ptrIN8LightGBM11MultiValBinESt14default_deleteIS1_EE3getEv(ptr noundef nonnull align 8 dereferenceable(8) %37) #3
  br label %42

39:                                               ; preds = %32
  %40 = getelementptr inbounds nuw %"class.LightGBM::MultiValBinWrapper", ptr %18, i32 0, i32 3
  %41 = call noundef ptr @_ZNKSt10unique_ptrIN8LightGBM11MultiValBinESt14default_deleteIS1_EE3getEv(ptr noundef nonnull align 8 dereferenceable(8) %40) #3
  br label %42

42:                                               ; preds = %39, %36
  %43 = phi ptr [ %38, %36 ], [ %41, %39 ]
  store ptr %43, ptr %13, align 8, !tbaa !108
  %44 = load ptr, ptr %13, align 8, !tbaa !108
  %45 = icmp ne ptr %44, null
  br i1 %45, label %46, label %82

46:                                               ; preds = %42
  %47 = load ptr, ptr %13, align 8, !tbaa !108
  %48 = load ptr, ptr %47, align 8, !tbaa !117
  %49 = getelementptr inbounds ptr, ptr %48, i64 3
  %50 = load ptr, ptr %49, align 8
  %51 = call noundef i32 %50(ptr noundef nonnull align 8 dereferenceable(8) %47)
  %52 = getelementptr inbounds nuw %"class.LightGBM::MultiValBinWrapper", ptr %18, i32 0, i32 10
  store i32 %51, ptr %52, align 4, !tbaa !56
  %53 = getelementptr inbounds nuw %"class.LightGBM::MultiValBinWrapper", ptr %18, i32 0, i32 10
  %54 = load i32, ptr %53, align 4, !tbaa !56
  %55 = add nsw i32 %54, 32
  %56 = sub nsw i32 %55, 1
  %57 = sdiv i32 %56, 32
  %58 = mul nsw i32 %57, 32
  %59 = getelementptr inbounds nuw %"class.LightGBM::MultiValBinWrapper", ptr %18, i32 0, i32 11
  store i32 %58, ptr %59, align 8, !tbaa !35
  call void @llvm.lifetime.start.p0(i64 8, ptr %14) #3
  %60 = load ptr, ptr %13, align 8, !tbaa !108
  %61 = load ptr, ptr %60, align 8, !tbaa !117
  %62 = getelementptr inbounds ptr, ptr %61, i64 4
  %63 = load ptr, ptr %62, align 8
  %64 = call noundef double %63(ptr noundef nonnull align 8 dereferenceable(8) %60)
  store double %64, ptr %14, align 8, !tbaa !88
  call void @llvm.lifetime.start.p0(i64 4, ptr %15) #3
  %65 = getelementptr inbounds nuw %"class.LightGBM::MultiValBinWrapper", ptr %18, i32 0, i32 10
  %66 = load i32, ptr %65, align 4, !tbaa !56
  %67 = sitofp i32 %66 to float
  %68 = fmul float 0x3FD3333340000000, %67
  %69 = fpext float %68 to double
  %70 = load double, ptr %14, align 8, !tbaa !88
  %71 = fadd double %70, 0x38AA95A5C0000000
  %72 = fdiv double %69, %71
  %73 = fptosi double %72 to i32
  %74 = add nsw i32 %73, 1
  store i32 %74, ptr %15, align 4, !tbaa !45
  call void @llvm.lifetime.start.p0(i64 4, ptr %16) #3
  store i32 1024, ptr %16, align 4, !tbaa !45
  %75 = call noundef nonnull align 4 dereferenceable(4) ptr @_ZSt3minIiERKT_S2_S2_(ptr noundef nonnull align 4 dereferenceable(4) %15, ptr noundef nonnull align 4 dereferenceable(4) %16)
  %76 = load i32, ptr %75, align 4, !tbaa !45
  %77 = getelementptr inbounds nuw %"class.LightGBM::MultiValBinWrapper", ptr %18, i32 0, i32 14
  store i32 %76, ptr %77, align 4, !tbaa !176
  call void @llvm.lifetime.end.p0(i64 4, ptr %16) #3
  call void @llvm.lifetime.end.p0(i64 4, ptr %15) #3
  %78 = getelementptr inbounds nuw %"class.LightGBM::MultiValBinWrapper", ptr %18, i32 0, i32 14
  call void @llvm.lifetime.start.p0(i64 4, ptr %17) #3
  store i32 32, ptr %17, align 4, !tbaa !45
  %79 = call noundef nonnull align 4 dereferenceable(4) ptr @_ZSt3maxIiERKT_S2_S2_(ptr noundef nonnull align 4 dereferenceable(4) %78, ptr noundef nonnull align 4 dereferenceable(4) %17)
  %80 = load i32, ptr %79, align 4, !tbaa !45
  %81 = getelementptr inbounds nuw %"class.LightGBM::MultiValBinWrapper", ptr %18, i32 0, i32 14
  store i32 %80, ptr %81, align 4, !tbaa !176
  call void @llvm.lifetime.end.p0(i64 4, ptr %17) #3
  call void @llvm.lifetime.end.p0(i64 8, ptr %14) #3
  br label %82

82:                                               ; preds = %46, %42
  call void @llvm.lifetime.end.p0(i64 8, ptr %13) #3
  br label %83

83:                                               ; preds = %82, %22
  ret void
}